(dp0
S'_AgentService:AgentInfo'
p1
(dp2
S'com.plexapp.agents.fanarttv'
p3
(lp4
(dp5
S'media_types'
p6
(lp7
S'Movie'
p8
asS'primary_provider'
p9
I00
sS'fallback_agent'
p10
NsS'contributes_to'
p11
(lp12
S'com.plexapp.agents.imdb'
p13
aS'com.plexapp.agents.themoviedb'
p14
asS'has_attribution'
p15
I01
sS'languages'
p16
(lp17
S'xn'
p18
asS'persist_stored_files'
p19
I01
sS'version'
p20
I0
sS'accepts_from'
p21
NsS'prefs'
p22
I01
sS'name'
p23
S'Fanart.tv'
p24
sa(dp25
S'media_types'
p26
(lp27
S'TV_Show'
p28
asS'primary_provider'
p29
I00
sS'fallback_agent'
p30
NsS'contributes_to'
p31
(lp32
S'com.plexapp.agents.thetvdb'
p33
aS'com.plexapp.agents.themoviedb'
p34
asg15
I01
sS'languages'
p35
(lp36
S'xn'
p37
asS'persist_stored_files'
p38
I01
sS'version'
p39
I0
sS'accepts_from'
p40
NsS'prefs'
p41
I01
sS'name'
p42
S'Fanart.tv'
p43
sa(dp44
S'media_types'
p45
(lp46
S'Artist'
p47
asS'primary_provider'
p48
I00
sS'fallback_agent'
p49
NsS'contributes_to'
p50
(lp51
S'com.plexapp.agents.lastfm'
p52
asg15
I01
sS'languages'
p53
(lp54
S'xn'
p55
asS'persist_stored_files'
p56
I01
sS'version'
p57
I0
sS'accepts_from'
p58
NsS'prefs'
p59
I01
sS'name'
p60
S'Fanart.tv'
p61
sa(dp62
S'media_types'
p63
(lp64
S'Album'
p65
asS'primary_provider'
p66
I00
sS'fallback_agent'
p67
NsS'contributes_to'
p68
(lp69
S'com.plexapp.agents.lastfm'
p70
asg15
I01
sS'languages'
p71
(lp72
S'xn'
p73
asS'persist_stored_files'
p74
I01
sS'version'
p75
I0
sS'accepts_from'
p76
NsS'prefs'
p77
I01
sS'name'
p78
S'Fanart.tv'
p79
sasS'com.plexapp.agents.none'
p80
(lp81
(dp82
S'media_types'
p83
(lp84
S'Movie'
p85
asS'primary_provider'
p86
I01
sS'fallback_agent'
p87
NsS'contributes_to'
p88
Nsg15
I00
sS'languages'
p89
(lp90
S'xn'
p91
asS'persist_stored_files'
p92
I01
sS'version'
p93
I0
sS'accepts_from'
p94
NsS'prefs'
p95
I00
sS'name'
p96
S'Personal Media'
p97
sa(dp98
S'media_types'
p99
(lp100
S'TV_Show'
p101
asS'primary_provider'
p102
I01
sS'fallback_agent'
p103
NsS'contributes_to'
p104
Nsg15
I00
sS'languages'
p105
(lp106
S'xn'
p107
asS'persist_stored_files'
p108
I01
sS'version'
p109
I0
sS'accepts_from'
p110
NsS'prefs'
p111
I00
sS'name'
p112
S'Personal Media Shows'
p113
sa(dp114
S'media_types'
p115
(lp116
S'Artist'
p117
asS'primary_provider'
p118
I01
sS'fallback_agent'
p119
NsS'contributes_to'
p120
Nsg15
I00
sS'languages'
p121
(lp122
S'xn'
p123
asS'persist_stored_files'
p124
I01
sS'version'
p125
I0
sS'accepts_from'
p126
NsS'prefs'
p127
I00
sS'name'
p128
S'Personal Media Artists'
p129
sa(dp130
S'media_types'
p131
(lp132
S'Album'
p133
asS'primary_provider'
p134
I01
sS'fallback_agent'
p135
NsS'contributes_to'
p136
Nsg15
I00
sS'languages'
p137
(lp138
S'xn'
p139
asS'persist_stored_files'
p140
I01
sS'version'
p141
I0
sS'accepts_from'
p142
NsS'prefs'
p143
I00
sS'name'
p144
S'Personal Media Albums'
p145
sa(dp146
S'media_types'
p147
(lp148
S'Photo'
p149
asS'primary_provider'
p150
I01
sS'fallback_agent'
p151
NsS'contributes_to'
p152
Nsg15
I00
sS'languages'
p153
(lp154
S'en'
p155
aS'ar'
p156
aS'bg'
p157
aS'ca'
p158
aS'cs'
p159
aS'cy'
p160
aS'da'
p161
aS'de'
p162
aS'el'
p163
aS'es'
p164
aS'et'
p165
aS'fa'
p166
aS'fi'
p167
aS'fr'
p168
aS'he'
p169
aS'hi'
p170
aS'hr'
p171
aS'ht'
p172
aS'hu'
p173
aS'id'
p174
aS'it'
p175
aS'ja'
p176
aS'ko'
p177
aS'lt'
p178
aS'lv'
p179
aS'ms'
p180
aS'mt'
p181
aS'nl'
p182
aS'no'
p183
aS'pl'
p184
aS'pt'
p185
aS'ro'
p186
aS'ru'
p187
aS'sk'
p188
aS'sv'
p189
aS'sl'
p190
aS'sr'
p191
aS'th'
p192
aS'tr'
p193
aS'uk'
p194
aS'ur'
p195
aS'vi'
p196
aS'zh'
p197
aS'xn'
p198
asS'persist_stored_files'
p199
I01
sS'version'
p200
I0
sS'accepts_from'
p201
NsS'prefs'
p202
I00
sS'name'
p203
S'Photos'
p204
sasS'tv.plex.agents.music'
p205
(lp206
(dp207
S'media_types'
p208
(lp209
S'Artist'
p210
asS'primary_provider'
p211
I01
sS'fallback_agent'
p212
NsS'contributes_to'
p213
(lp214
S'com.plexapp.agents.localmedia'
p215
asg15
I01
sS'languages'
p216
(lp217
S'en'
p218
aS'ar'
p219
aS'bg'
p220
aS'zh'
p221
aS'hr'
p222
aS'cs'
p223
aS'da'
p224
aS'nl'
p225
aS'fi'
p226
aS'fr'
p227
aS'de'
p228
aS'el'
p229
aS'hu'
p230
aS'id'
p231
aS'it'
p232
aS'ja'
p233
aS'ko'
p234
aS'nn'
p235
aS'pl'
p236
aS'pt'
p237
aS'ro'
p238
aS'ru'
p239
aS'sr'
p240
aS'sk'
p241
aS'es'
p242
aS'sv'
p243
aS'th'
p244
aS'tr'
p245
aS'vi'
p246
aS'xx'
p247
asS'persist_stored_files'
p248
I01
sS'version'
p249
I0
sS'accepts_from'
p250
NsS'prefs'
p251
I01
sS'name'
p252
S'Plex Music'
p253
sa(dp254
S'media_types'
p255
(lp256
S'Album'
p257
asS'primary_provider'
p258
I01
sS'fallback_agent'
p259
NsS'contributes_to'
p260
(lp261
S'com.plexapp.agents.localmedia'
p262
asg15
I01
sS'languages'
p263
g217
sS'persist_stored_files'
p264
I01
sS'version'
p265
I0
sS'accepts_from'
p266
NsS'prefs'
p267
I01
sS'name'
p268
S'Plex Music'
p269
sasS'com.plexapp.agents.opensubtitles'
p270
(lp271
(dp272
S'media_types'
p273
(lp274
S'Movie'
p275
asS'primary_provider'
p276
I00
sS'fallback_agent'
p277
NsS'contributes_to'
p278
(lp279
S'com.plexapp.agents.imdb'
p280
asg15
I00
sS'languages'
p281
(lp282
S'xn'
p283
asS'persist_stored_files'
p284
I01
sS'version'
p285
I0
sS'accepts_from'
p286
NsS'prefs'
p287
I01
sS'name'
p288
S'OpenSubtitles.org'
p289
sa(dp290
S'media_types'
p291
(lp292
S'TV_Show'
p293
asS'primary_provider'
p294
I00
sS'fallback_agent'
p295
NsS'contributes_to'
p296
(lp297
S'com.plexapp.agents.thetvdb'
p298
asg15
I00
sS'languages'
p299
(lp300
S'xn'
p301
asS'persist_stored_files'
p302
I01
sS'version'
p303
I0
sS'accepts_from'
p304
NsS'prefs'
p305
I01
sS'name'
p306
S'OpenSubtitles.org'
p307
sasS'com.plexapp.agents.imdb'
p308
(lp309
(dp310
S'media_types'
p311
(lp312
S'Movie'
p313
asS'primary_provider'
p314
I01
sS'fallback_agent'
p315
NsS'contributes_to'
p316
(lp317
S'com.plexapp.agents.themoviedb'
p318
asS'has_attribution'
p319
I01
sS'languages'
p320
(lp321
S'en'
p322
aS'sv'
p323
aS'fr'
p324
aS'es'
p325
aS'nl'
p326
aS'de'
p327
aS'it'
p328
aS'da'
p329
aS'ar'
p330
aS'ca'
p331
aS'zh'
p332
aS'cs'
p333
aS'et'
p334
aS'fi'
p335
aS'el'
p336
aS'he'
p337
aS'hi'
p338
aS'hu'
p339
aS'id'
p340
aS'ja'
p341
aS'ko'
p342
aS'lv'
p343
aS'no'
p344
aS'fa'
p345
aS'pl'
p346
aS'pt'
p347
aS'ro'
p348
aS'ru'
p349
aS'sk'
p350
aS'th'
p351
aS'tr'
p352
aS'uk'
p353
aS'vi'
p354
asS'persist_stored_files'
p355
I01
sS'version'
p356
I0
sS'accepts_from'
p357
(lp358
S'com.plexapp.agents.localmedia'
p359
asS'prefs'
p360
I01
sS'name'
p361
S'Plex Movie'
p362
sasS'com.plexapp.agents.lyricfind'
p363
(lp364
(dp365
S'media_types'
p366
(lp367
S'Album'
p368
asS'primary_provider'
p369
I00
sS'fallback_agent'
p370
NsS'contributes_to'
p371
(lp372
S'com.plexapp.agents.lastfm'
p373
aS'tv.plex.agents.music'
p374
aS'org.musicbrainz.agents.music'
p375
asg15
I01
sS'languages'
p376
(lp377
S'xn'
p378
asS'persist_stored_files'
p379
I01
sS'version'
p380
I0
sS'accepts_from'
p381
NsS'prefs'
p382
I00
sS'name'
p383
S'LyricFind'
p384
sasS'com.plexapp.agents.thetvdb'
p385
(lp386
(dp387
S'media_types'
p388
(lp389
S'TV_Show'
p390
asS'primary_provider'
p391
I01
sS'fallback_agent'
p392
NsS'contributes_to'
p393
Nsg15
I01
sS'languages'
p394
(lp395
S'en'
p396
aS'fr'
p397
aS'zh'
p398
aS'sv'
p399
aS'no'
p400
aS'da'
p401
aS'fi'
p402
aS'nl'
p403
aS'de'
p404
aS'it'
p405
aS'es'
p406
aS'pl'
p407
aS'hu'
p408
aS'el'
p409
aS'tr'
p410
aS'ru'
p411
aS'he'
p412
aS'ja'
p413
aS'pt'
p414
aS'cs'
p415
aS'ko'
p416
aS'sl'
p417
aS'hr'
p418
asS'persist_stored_files'
p419
I01
sS'version'
p420
I0
sS'accepts_from'
p421
NsS'prefs'
p422
I01
sS'name'
p423
S'TheTVDB'
p424
sasS'tv.plex.agents.movie'
p425
(lp426
(dp427
S'media_types'
p428
(lp429
S'Movie'
p430
asS'primary_provider'
p431
I01
sS'fallback_agent'
p432
NsS'contributes_to'
p433
Nsg15
I01
sS'languages'
p434
(lp435
sS'persist_stored_files'
p436
I01
sS'version'
p437
I0
sS'accepts_from'
p438
NsS'prefs'
p439
I01
sS'name'
p440
S'Plex Movie'
p441
sasS'tv.plex.agents.series'
p442
(lp443
(dp444
S'media_types'
p445
(lp446
S'TV_Show'
p447
asS'primary_provider'
p448
I01
sS'fallback_agent'
p449
NsS'contributes_to'
p450
Nsg15
I01
sS'languages'
p451
(lp452
sS'persist_stored_files'
p453
I01
sS'version'
p454
I0
sS'accepts_from'
p455
NsS'prefs'
p456
I01
sS'name'
p457
S'Plex TV Series'
p458
sasS'com.plexapp.agents.htbackdrops'
p459
(lp460
(dp461
S'media_types'
p462
(lp463
S'Artist'
p464
asS'primary_provider'
p465
I00
sS'fallback_agent'
p466
NsS'contributes_to'
p467
(lp468
S'com.plexapp.agents.lastfm'
p469
asg15
I01
sS'languages'
p470
(lp471
S'ab'
p472
aS'aa'
p473
aS'af'
p474
aS'ak'
p475
aS'sq'
p476
aS'am'
p477
aS'ar'
p478
aS'an'
p479
aS'hy'
p480
aS'as'
p481
aS'av'
p482
aS'ae'
p483
aS'ay'
p484
aS'az'
p485
aS'bm'
p486
aS'ba'
p487
aS'eu'
p488
aS'be'
p489
aS'bn'
p490
aS'bh'
p491
aS'bi'
p492
aS'bs'
p493
aS'pb'
p494
aS'br'
p495
aS'bg'
p496
aS'my'
p497
aS'ca'
p498
aS'ch'
p499
aS'ce'
p500
aS'ny'
p501
aS'zh'
p502
aS'cu'
p503
aS'cv'
p504
aS'kw'
p505
aS'co'
p506
aS'cr'
p507
aS'hr'
p508
aS'cs'
p509
aS'da'
p510
aS'dv'
p511
aS'nl'
p512
aS'dz'
p513
aS'en'
p514
aS'eo'
p515
aS'et'
p516
aS'ee'
p517
aS'fo'
p518
aS'fj'
p519
aS'fi'
p520
aS'fr'
p521
aS'fy'
p522
aS'ff'
p523
aS'gd'
p524
aS'gl'
p525
aS'lg'
p526
aS'ka'
p527
aS'de'
p528
aS'el'
p529
aS'gn'
p530
aS'gu'
p531
aS'ht'
p532
aS'ha'
p533
aS'he'
p534
aS'hz'
p535
aS'hi'
p536
aS'ho'
p537
aS'hu'
p538
aS'is'
p539
aS'io'
p540
aS'ig'
p541
aS'id'
p542
aS'ia'
p543
aS'ie'
p544
aS'iu'
p545
aS'ik'
p546
aS'ga'
p547
aS'it'
p548
aS'ja'
p549
aS'jv'
p550
aS'kl'
p551
aS'kn'
p552
aS'kr'
p553
aS'ks'
p554
aS'kk'
p555
aS'km'
p556
aS'ki'
p557
aS'rw'
p558
aS'ky'
p559
aS'kv'
p560
aS'kg'
p561
aS'ko'
p562
aS'kj'
p563
aS'ku'
p564
aS'lo'
p565
aS'la'
p566
aS'lv'
p567
aS'li'
p568
aS'ln'
p569
aS'lt'
p570
aS'lu'
p571
aS'lb'
p572
aS'mk'
p573
aS'mg'
p574
aS'ms'
p575
aS'ml'
p576
aS'mt'
p577
aS'gv'
p578
aS'mi'
p579
aS'mr'
p580
aS'mh'
p581
aS'mo'
p582
aS'mn'
p583
aS'na'
p584
aS'nv'
p585
aS'ng'
p586
aS'ne'
p587
aS'xn'
p588
aS'nd'
p589
aS'no'
p590
aS'nb'
p591
aS'nn'
p592
aS'oc'
p593
aS'oj'
p594
aS'or'
p595
aS'om'
p596
aS'os'
p597
aS'pi'
p598
aS'pa'
p599
aS'fa'
p600
aS'pl'
p601
aS'pt'
p602
aS'ps'
p603
aS'qu'
p604
aS'rm'
p605
aS'ro'
p606
aS'rn'
p607
aS'ru'
p608
aS'se'
p609
aS'sm'
p610
aS'sg'
p611
aS'sa'
p612
aS'sc'
p613
aS'sr'
p614
aS'sn'
p615
aS'ii'
p616
aS'sd'
p617
aS'si'
p618
aS'sk'
p619
aS'sl'
p620
aS'so'
p621
aS'st'
p622
aS'nr'
p623
aS'es'
p624
aS'su'
p625
aS'sw'
p626
aS'ss'
p627
aS'sv'
p628
aS'tl'
p629
aS'ty'
p630
aS'tg'
p631
aS'ta'
p632
aS'tt'
p633
aS'te'
p634
aS'th'
p635
aS'bo'
p636
aS'ti'
p637
aS'to'
p638
aS'ts'
p639
aS'tn'
p640
aS'tr'
p641
aS'tk'
p642
aS'tw'
p643
aS'ug'
p644
aS'uk'
p645
aS'ur'
p646
aS'uz'
p647
aS've'
p648
aS'vi'
p649
aS'vo'
p650
aS'wa'
p651
aS'cy'
p652
aS'wo'
p653
aS'xh'
p654
aS'yi'
p655
aS'yo'
p656
aS'za'
p657
aS'zu'
p658
asS'persist_stored_files'
p659
I01
sS'version'
p660
I0
sS'accepts_from'
p661
NsS'prefs'
p662
I00
sS'name'
p663
S'Home Theater Backdrops'
p664
sasS'com.plexapp.agents.plexthememusic'
p665
(lp666
(dp667
S'media_types'
p668
(lp669
S'TV_Show'
p670
asS'primary_provider'
p671
I00
sS'fallback_agent'
p672
NsS'contributes_to'
p673
(lp674
S'com.plexapp.agents.thetvdb'
p675
aS'com.plexapp.agents.thetvdbdvdorder'
p676
aS'com.plexapp.agents.themoviedb'
p677
asg15
I00
sS'languages'
p678
(lp679
S'xn'
p680
asS'persist_stored_files'
p681
I01
sS'version'
p682
I0
sS'accepts_from'
p683
NsS'prefs'
p684
I00
sS'name'
p685
S'Plex Theme Music'
p686
sasS'org.musicbrainz.agents.music'
p687
(lp688
(dp689
S'media_types'
p690
(lp691
S'Artist'
p692
asS'primary_provider'
p693
I01
sS'fallback_agent'
p694
NsS'contributes_to'
p695
Nsg15
I01
sS'languages'
p696
(lp697
S'en'
p698
aS'ar'
p699
aS'bg'
p700
aS'zh'
p701
aS'hr'
p702
aS'cs'
p703
aS'da'
p704
aS'nl'
p705
aS'fi'
p706
aS'fr'
p707
aS'de'
p708
aS'el'
p709
aS'hu'
p710
aS'id'
p711
aS'it'
p712
aS'ja'
p713
aS'ko'
p714
aS'nn'
p715
aS'pl'
p716
aS'pt'
p717
aS'ro'
p718
aS'ru'
p719
aS'sr'
p720
aS'sk'
p721
aS'es'
p722
aS'sv'
p723
aS'th'
p724
aS'tr'
p725
aS'vi'
p726
aS'xx'
p727
asS'persist_stored_files'
p728
I01
sS'version'
p729
I0
sS'accepts_from'
p730
NsS'prefs'
p731
I01
sS'name'
p732
S'Musicbrainz'
p733
sa(dp734
S'media_types'
p735
(lp736
S'Album'
p737
asS'primary_provider'
p738
I01
sS'fallback_agent'
p739
NsS'contributes_to'
p740
Nsg15
I01
sS'languages'
p741
g697
sS'persist_stored_files'
p742
I01
sS'version'
p743
I0
sS'accepts_from'
p744
NsS'prefs'
p745
I01
sS'name'
p746
S'Musicbrainz'
p747
sasS'com.plexapp.agents.themoviedb'
p748
(lp749
(dp750
S'media_types'
p751
(lp752
S'Movie'
p753
asS'primary_provider'
p754
I01
sS'fallback_agent'
p755
NsS'contributes_to'
p756
Nsg15
I01
sS'languages'
p757
(lp758
S'en'
p759
aS'cs'
p760
aS'da'
p761
aS'de'
p762
aS'el'
p763
aS'es'
p764
aS'fi'
p765
aS'fr'
p766
aS'he'
p767
aS'hr'
p768
aS'hu'
p769
aS'it'
p770
aS'lv'
p771
aS'lt'
p772
aS'nl'
p773
aS'no'
p774
aS'pl'
p775
aS'pt'
p776
aS'ru'
p777
aS'sk'
p778
aS'sv'
p779
aS'th'
p780
aS'tr'
p781
aS'vi'
p782
aS'zh'
p783
aS'ko'
p784
asS'persist_stored_files'
p785
I01
sS'version'
p786
I0
sS'accepts_from'
p787
(lp788
S'com.plexapp.agents.localmedia'
p789
asS'prefs'
p790
I01
sS'name'
p791
S'The Movie Database'
p792
sa(dp793
S'media_types'
p794
(lp795
S'TV_Show'
p796
asS'primary_provider'
p797
I01
sS'fallback_agent'
p798
NsS'contributes_to'
p799
(lp800
S'com.plexapp.agents.thetvdb'
p801
asg15
I01
sS'languages'
p802
g758
sS'persist_stored_files'
p803
I01
sS'version'
p804
I0
sS'accepts_from'
p805
(lp806
S'com.plexapp.agents.localmedia'
p807
aS'com.plexapp.agents.thetvdb'
p808
asS'prefs'
p809
I01
sS'name'
p810
S'The Movie Database'
p811
sasS'com.plexapp.agents.movieposterdb'
p812
(lp813
(dp814
S'media_types'
p815
(lp816
S'Movie'
p817
asS'primary_provider'
p818
I00
sS'fallback_agent'
p819
NsS'contributes_to'
p820
(lp821
S'com.plexapp.agents.imdb'
p822
asg15
I01
sS'languages'
p823
(lp824
S'xn'
p825
asS'persist_stored_files'
p826
I01
sS'version'
p827
I0
sS'accepts_from'
p828
NsS'prefs'
p829
I00
sS'name'
p830
S'CineMaterial'
p831
sasS'com.plexapp.agents.localmedia'
p832
(lp833
(dp834
S'media_types'
p835
(lp836
S'Movie'
p837
asS'primary_provider'
p838
I00
sS'fallback_agent'
p839
NsS'contributes_to'
p840
(lp841
S'com.plexapp.agents.imdb'
p842
aS'com.plexapp.agents.none'
p843
asg15
I00
sS'languages'
p844
(lp845
S'xn'
p846
asS'persist_stored_files'
p847
I00
sS'version'
p848
I0
sS'accepts_from'
p849
NsS'prefs'
p850
I01
sS'name'
p851
S'Local Media Assets (Movies)'
p852
sa(dp853
S'media_types'
p854
(lp855
S'TV_Show'
p856
asS'primary_provider'
p857
I00
sS'fallback_agent'
p858
NsS'contributes_to'
p859
(lp860
S'com.plexapp.agents.thetvdb'
p861
aS'com.plexapp.agents.none'
p862
asg15
I00
sS'languages'
p863
(lp864
S'xn'
p865
asS'persist_stored_files'
p866
I00
sS'version'
p867
I0
sS'accepts_from'
p868
NsS'prefs'
p869
I01
sS'name'
p870
S'Local Media Assets (TV)'
p871
sa(dp872
S'media_types'
p873
(lp874
S'Artist'
p875
asS'primary_provider'
p876
I00
sS'fallback_agent'
p877
NsS'contributes_to'
p878
(lp879
S'com.plexapp.agents.discogs'
p880
aS'com.plexapp.agents.lastfm'
p881
aS'com.plexapp.agents.plexmusic'
p882
aS'com.plexapp.agents.none'
p883
aS'tv.plex.agents.music'
p884
aS'org.musicbrainz.agents.music'
p885
asg15
I00
sS'languages'
p886
(lp887
S'xn'
p888
asS'persist_stored_files'
p889
I00
sS'version'
p890
I0
sS'accepts_from'
p891
NsS'prefs'
p892
I01
sS'name'
p893
S'Local Media Assets (Artists)'
p894
sa(dp895
S'media_types'
p896
(lp897
S'Artist'
p898
asS'primary_provider'
p899
I00
sS'fallback_agent'
p900
NsS'contributes_to'
p901
(lp902
S'com.plexapp.agents.plexmusic'
p903
asg15
I00
sS'languages'
p904
g887
sS'persist_stored_files'
p905
I00
sS'version'
p906
I2
sS'accepts_from'
p907
NsS'prefs'
p908
I01
sS'name'
p909
S'Local Media Assets (Artists)'
p910
sa(dp911
S'media_types'
p912
(lp913
S'Album'
p914
asS'primary_provider'
p915
I00
sS'fallback_agent'
p916
NsS'contributes_to'
p917
(lp918
S'com.plexapp.agents.discogs'
p919
aS'com.plexapp.agents.lastfm'
p920
aS'com.plexapp.agents.plexmusic'
p921
aS'com.plexapp.agents.none'
p922
aS'tv.plex.agents.music'
p923
aS'org.musicbrainz.agents.music'
p924
asg15
I00
sS'languages'
p925
(lp926
S'xn'
p927
asS'persist_stored_files'
p928
I00
sS'version'
p929
I0
sS'accepts_from'
p930
NsS'prefs'
p931
I01
sS'name'
p932
S'Local Media Assets (Albums)'
p933
sasS'com.plexapp.agents.lastfm'
p934
(lp935
(dp936
S'media_types'
p937
(lp938
S'Artist'
p939
asS'primary_provider'
p940
I01
sS'fallback_agent'
p941
NsS'contributes_to'
p942
Nsg15
I01
sS'languages'
p943
(lp944
S'en'
p945
aS'sv'
p946
aS'fr'
p947
aS'es'
p948
aS'de'
p949
aS'pl'
p950
aS'it'
p951
aS'pt'
p952
aS'ja'
p953
aS'tr'
p954
aS'ru'
p955
aS'zh'
p956
asS'persist_stored_files'
p957
I01
sS'version'
p958
I0
sS'accepts_from'
p959
NsS'prefs'
p960
I01
sS'name'
p961
S'Last.fm'
p962
sa(dp963
S'media_types'
p964
(lp965
S'Album'
p966
asS'primary_provider'
p967
I01
sS'fallback_agent'
p968
NsS'contributes_to'
p969
Nsg15
I01
sS'languages'
p970
(lp971
S'en'
p972
aS'sv'
p973
aS'fr'
p974
aS'es'
p975
aS'de'
p976
aS'pl'
p977
aS'it'
p978
aS'pt'
p979
aS'ja'
p980
aS'tr'
p981
aS'ru'
p982
aS'zh'
p983
asS'persist_stored_files'
p984
I01
sS'version'
p985
I0
sS'accepts_from'
p986
NsS'prefs'
p987
I01
sS'name'
p988
S'Last.fm'
p989
sass.